target datalayout = "e-m:e-p270:32:32-p271:32:32-p272:64:64-i64:64-i128:128-f80:128-n8:16:32:64-S128"
target triple = "x86_64-pc-linux-gnu"

%struct._zend_executor_globals = type { %struct._zval_struct, %struct._zval_struct, [32 x ptr], ptr, ptr, %struct._zend_array, %struct._zend_array, ptr, i32, i8, %struct._zval_struct, i32, ptr, ptr, ptr, ptr, ptr, ptr, i64, ptr, ptr, i32, ptr, i32, i64, i32, i32, i32, i8, i8, %struct.zend_atomic_bool_s, %struct.zend_atomic_bool_s, ptr, i64, ptr, ptr, %struct._zend_array, %struct._zend_array, i32, i8, %struct._zval_struct, %struct._zval_struct, %struct._zend_stack, %struct._zend_stack, %struct._zend_stack, ptr, i32, i32, i64, ptr, ptr, ptr, %struct._zend_objects_store, %struct._zend_lazy_objects_store, ptr, ptr, ptr, [3 x %struct._zend_op], ptr, i8, i8, i64, i32, i32, ptr, [16 x %struct._HashTableIterator], ptr, %union._zend_function, %struct._zend_op, %struct._zend_array, i64, %struct.zend_get_gc_buffer, ptr, ptr, ptr, i64, i8, i32, ptr, ptr, i64, %struct._zend_call_stack, i64, i64, %struct._zend_strtod_state, [6 x ptr] }
%struct.zend_atomic_bool_s = type { i8 }
%struct._zval_struct = type { %union._zend_value, %union.anon, %union.anon.2 }
%union._zend_value = type { i64 }
%union.anon = type { i32 }
%union.anon.2 = type { i32 }
%struct._zend_stack = type { i32, i32, i32, ptr }
%struct._zend_objects_store = type { ptr, i32, i32, i32 }
%struct._zend_lazy_objects_store = type { %struct._zend_array }
%struct._HashTableIterator = type { ptr, i32, i32 }
%union._zend_function = type { %struct._zend_op_array }
%struct._zend_op_array = type { i8, [3 x i8], i32, ptr, ptr, ptr, i32, i32, ptr, ptr, ptr, ptr, i32, ptr, i32, i32, i32, ptr, ptr, ptr, ptr, ptr, i32, i32, ptr, ptr, ptr, i32, i32, i32, i32, ptr, ptr, [6 x ptr] }
%struct._zend_op = type { ptr, %union._znode_op, %union._znode_op, %union._znode_op, i32, i32, i8, i8, i8, i8 }
%union._znode_op = type { i32 }
%struct._zend_array = type { %struct._zend_refcounted_h, %union.anon.4, i32, %union.anon.6, i32, i32, i32, i32, i64, ptr }
%struct._zend_refcounted_h = type { i32, %union.anon.3 }
%union.anon.3 = type { i32 }
%union.anon.4 = type { i32 }
%union.anon.6 = type { ptr }
%struct.zend_get_gc_buffer = type { ptr, ptr, ptr }
%struct._zend_call_stack = type { ptr, i64 }
%struct._zend_strtod_state = type { [8 x ptr], ptr, ptr }
%struct._zend_object_handlers = type { i32, ptr, ptr, ptr, ptr, ptr, ptr, ptr, ptr, ptr, ptr, ptr, ptr, ptr, ptr, ptr, ptr, ptr, ptr, ptr, ptr, ptr, ptr, ptr, ptr }
%struct._zend_execute_data = type { ptr, ptr, ptr, ptr, %struct._zval_struct, ptr, ptr, ptr, ptr }
%struct._phar_archive_data = type { ptr, i32, ptr, i32, ptr, i32, [12 x i8], i64, %struct._zend_array, %struct._zend_array, %struct._zend_array, i32, i32, i32, ptr, ptr, i32, i32, i32, ptr, %struct._phar_metadata_tracker, i32, i16 }
%struct._phar_metadata_tracker = type { %struct._zval_struct, ptr }
%struct._zend_object = type { %struct._zend_refcounted_h, i32, i32, ptr, ptr, ptr, [1 x %struct._zval_struct] }

@executor_globals = external global %struct._zend_executor_globals, align 8
@phar_ce_PharException = internal global ptr null, align 8
@spl_ce_BadMethodCallException = external global ptr, align 8
@.str.72 = private unnamed_addr constant [51 x i8] c"Cannot call method on an uninitialized Phar object\00", align 1
@.str.81 = private unnamed_addr constant [2 x i8] c"l\00", align 1
@.str.82 = private unnamed_addr constant [30 x i8] c"Unknown file format specified\00", align 1

; Function Attrs: nounwind uwtable
define hidden void @zim_Phar_isFileFormat(ptr noundef %0, ptr noundef %1) #0 {
  %3 = alloca ptr, align 8
  %4 = alloca ptr, align 8
  %5 = alloca i64, align 8
  %6 = alloca i32, align 4
  %7 = alloca ptr, align 8
  %8 = alloca ptr, align 8
  store ptr %0, ptr %3, align 8, !tbaa !4
  store ptr %1, ptr %4, align 8, !tbaa !9
  call void @llvm.lifetime.start.p0(i64 8, ptr %5) #17
  %9 = load ptr, ptr %3, align 8, !tbaa !4
  %10 = getelementptr inbounds nuw %struct._zend_execute_data, ptr %9, i32 0, i32 4
  %11 = getelementptr inbounds nuw %struct._zval_struct, ptr %10, i32 0, i32 2
  %12 = load i32, ptr %11, align 4, !tbaa !13
  %13 = call i32 (i32, ptr, ...) @zend_parse_parameters(i32 noundef %12, ptr noundef @.str.81, ptr noundef %5)
  %14 = icmp eq i32 %13, -1
  br i1 %14, label %15, label %21

15:                                               ; preds = %2
  br label %16

16:                                               ; preds = %15
  %17 = load ptr, ptr getelementptr inbounds nuw (%struct._zend_executor_globals, ptr @executor_globals, i32 0, i32 54), align 8, !tbaa !14
  %18 = icmp ne ptr %17, null
  call void @llvm.assume(i1 %18)
  store i32 1, ptr %6, align 4
  br label %121

19:                                               ; No predecessors!
  br label %20

20:                                               ; preds = %19
  br label %21

21:                                               ; preds = %20, %2
  call void @llvm.lifetime.start.p0(i64 8, ptr %7) #17
  %22 = load ptr, ptr %3, align 8, !tbaa !4
  %23 = getelementptr inbounds nuw %struct._zend_execute_data, ptr %22, i32 0, i32 4
  store ptr %23, ptr %7, align 8, !tbaa !9
  call void @llvm.lifetime.start.p0(i64 8, ptr %8) #17
  %24 = load ptr, ptr %7, align 8, !tbaa !9
  %25 = getelementptr inbounds nuw %struct._zval_struct, ptr %24, i32 0, i32 0
  %26 = load ptr, ptr %25, align 8, !tbaa !13
  %27 = load ptr, ptr %7, align 8, !tbaa !9
  %28 = getelementptr inbounds nuw %struct._zval_struct, ptr %27, i32 0, i32 0
  %29 = load ptr, ptr %28, align 8, !tbaa !13
  %30 = getelementptr inbounds nuw %struct._zend_object, ptr %29, i32 0, i32 4
  %31 = load ptr, ptr %30, align 8, !tbaa !118
  %32 = getelementptr inbounds nuw %struct._zend_object_handlers, ptr %31, i32 0, i32 0
  %33 = load i32, ptr %32, align 8, !tbaa !121
  %34 = sext i32 %33 to i64
  %35 = sub i64 0, %34
  %36 = getelementptr inbounds i8, ptr %26, i64 %35
  store ptr %36, ptr %8, align 8, !tbaa !123
  %37 = load ptr, ptr %8, align 8, !tbaa !123
  %38 = load ptr, ptr %37, align 8, !tbaa !13
  %39 = icmp ne ptr %38, null
  br i1 %39, label %48, label %40

40:                                               ; preds = %21
  %41 = load ptr, ptr @spl_ce_BadMethodCallException, align 8, !tbaa !53
  %42 = call ptr (ptr, i64, ptr, ...) @zend_throw_exception_ex(ptr noundef %41, i64 noundef 0, ptr noundef @.str.72)
  br label %43

43:                                               ; preds = %40
  %44 = load ptr, ptr getelementptr inbounds nuw (%struct._zend_executor_globals, ptr @executor_globals, i32 0, i32 54), align 8, !tbaa !14
  %45 = icmp ne ptr %44, null
  call void @llvm.assume(i1 %45)
  store i32 1, ptr %6, align 4
  br label %120

46:                                               ; No predecessors!
  br label %47

47:                                               ; preds = %46
  br label %48

48:                                               ; preds = %47, %21
  %49 = load i64, ptr %5, align 8, !tbaa !52
  switch i64 %49, label %116 [
    i64 2, label %50
    i64 3, label %68
    i64 1, label %86
  ]

50:                                               ; preds = %48
  br label %51

51:                                               ; preds = %50
  br label %52

52:                                               ; preds = %51
  %53 = load ptr, ptr %8, align 8, !tbaa !123
  %54 = load ptr, ptr %53, align 8, !tbaa !13
  %55 = getelementptr inbounds nuw %struct._phar_archive_data, ptr %54, i32 0, i32 22
  %56 = load i16, ptr %55, align 4
  %57 = lshr i16 %56, 6
  %58 = and i16 %57, 1
  %59 = zext i16 %58 to i32
  %60 = icmp ne i32 %59, 0
  %61 = select i1 %60, i32 3, i32 2
  %62 = load ptr, ptr %4, align 8, !tbaa !9
  %63 = getelementptr inbounds nuw %struct._zval_struct, ptr %62, i32 0, i32 1
  store i32 %61, ptr %63, align 8, !tbaa !13
  br label %64

64:                                               ; preds = %52
  br label %65

65:                                               ; preds = %64
  store i32 1, ptr %6, align 4
  br label %120

66:                                               ; No predecessors!
  br label %67

67:                                               ; preds = %66
  br label %68

68:                                               ; preds = %48, %67
  br label %69

69:                                               ; preds = %68
  br label %70

70:                                               ; preds = %69
  %71 = load ptr, ptr %8, align 8, !tbaa !123
  %72 = load ptr, ptr %71, align 8, !tbaa !13
  %73 = getelementptr inbounds nuw %struct._phar_archive_data, ptr %72, i32 0, i32 22
  %74 = load i16, ptr %73, align 4
  %75 = lshr i16 %74, 5
  %76 = and i16 %75, 1
  %77 = zext i16 %76 to i32
  %78 = icmp ne i32 %77, 0
  %79 = select i1 %78, i32 3, i32 2
  %80 = load ptr, ptr %4, align 8, !tbaa !9
  %81 = getelementptr inbounds nuw %struct._zval_struct, ptr %80, i32 0, i32 1
  store i32 %79, ptr %81, align 8, !tbaa !13
  br label %82

82:                                               ; preds = %70
  br label %83

83:                                               ; preds = %82
  store i32 1, ptr %6, align 4
  br label %120

84:                                               ; No predecessors!
  br label %85

85:                                               ; preds = %84
  br label %86

86:                                               ; preds = %48, %85
  br label %87

87:                                               ; preds = %86
  br label %88

88:                                               ; preds = %87
  %89 = load ptr, ptr %8, align 8, !tbaa !123
  %90 = load ptr, ptr %89, align 8, !tbaa !13
  %91 = getelementptr inbounds nuw %struct._phar_archive_data, ptr %90, i32 0, i32 22
  %92 = load i16, ptr %91, align 4
  %93 = lshr i16 %92, 6
  %94 = and i16 %93, 1
  %95 = zext i16 %94 to i32
  %96 = icmp ne i32 %95, 0
  br i1 %96, label %107, label %97

97:                                               ; preds = %88
  %98 = load ptr, ptr %8, align 8, !tbaa !123
  %99 = load ptr, ptr %98, align 8, !tbaa !13
  %100 = getelementptr inbounds nuw %struct._phar_archive_data, ptr %99, i32 0, i32 22
  %101 = load i16, ptr %100, align 4
  %102 = lshr i16 %101, 5
  %103 = and i16 %102, 1
  %104 = zext i16 %103 to i32
  %105 = icmp ne i32 %104, 0
  %106 = xor i1 %105, true
  br label %107

107:                                              ; preds = %97, %88
  %108 = phi i1 [ false, %88 ], [ %106, %97 ]
  %109 = select i1 %108, i32 3, i32 2
  %110 = load ptr, ptr %4, align 8, !tbaa !9
  %111 = getelementptr inbounds nuw %struct._zval_struct, ptr %110, i32 0, i32 1
  store i32 %109, ptr %111, align 8, !tbaa !13
  br label %112

112:                                              ; preds = %107
  br label %113

113:                                              ; preds = %112
  store i32 1, ptr %6, align 4
  br label %120

114:                                              ; No predecessors!
  br label %115

115:                                              ; preds = %114
  br label %116

116:                                              ; preds = %48, %115
  %117 = load ptr, ptr @phar_ce_PharException, align 8, !tbaa !53
  %118 = call ptr (ptr, i64, ptr, ...) @zend_throw_exception_ex(ptr noundef %117, i64 noundef 0, ptr noundef @.str.82)
  br label %119

119:                                              ; preds = %116
  store i32 0, ptr %6, align 4
  br label %120

120:                                              ; preds = %119, %113, %83, %65, %43
  call void @llvm.lifetime.end.p0(i64 8, ptr %8) #17
  call void @llvm.lifetime.end.p0(i64 8, ptr %7) #17
  br label %121

121:                                              ; preds = %120, %16
  call void @llvm.lifetime.end.p0(i64 8, ptr %5) #17
  %122 = load i32, ptr %6, align 4
  switch i32 %122, label %124 [
    i32 0, label %123
    i32 1, label %123
  ]

123:                                              ; preds = %121, %121
  ret void

124:                                              ; preds = %121
  unreachable
}